; Function Attrs: nounwind uwtable
define internal void @spatial_compose_haari_dy_8bit(ptr noundef captures(none) %0, i32 noundef %1, i32 noundef %2, i32 %3, i32 noundef %4) #0 {
  %6 = getelementptr inbounds nuw i8, ptr %0, i64 80
  %7 = load ptr, ptr %6, align 8, !tbaa !30
  %8 = sext i32 %1 to i64
  %.idx = mul nsw i64 %8, 72
  %9 = getelementptr i8, ptr %0, i64 160
  %10 = getelementptr i8, ptr %9, i64 %.idx
  %11 = load i32, ptr %10, align 8, !tbaa !23
  %12 = load ptr, ptr %0, align 8, !tbaa !11
  %13 = add nsw i32 %11, -1
  %14 = mul nsw i32 %13, %4
  %15 = sext i32 %14 to i64
  %16 = getelementptr inbounds i8, ptr %12, i64 %15
  %17 = mul nsw i32 %11, %4
  %18 = sext i32 %17 to i64
  %19 = getelementptr inbounds i8, ptr %12, i64 %18
  tail call void %7(ptr noundef %16, ptr noundef %19, i32 noundef %2) #6
  %20 = getelementptr inbounds nuw i8, ptr %0, i64 88
  %21 = load ptr, ptr %20, align 8, !tbaa !33
  %22 = getelementptr inbounds nuw i8, ptr %0, i64 8
  %23 = load ptr, ptr %22, align 8, !tbaa !20
  tail call void %21(ptr noundef %16, ptr noundef %23, i32 noundef %2) #6
  %24 = load ptr, ptr %20, align 8, !tbaa !33
  %25 = load ptr, ptr %22, align 8, !tbaa !20
  tail call void %24(ptr noundef %19, ptr noundef %25, i32 noundef %2) #6
  %26 = load i32, ptr %10, align 8, !tbaa !23
  %27 = add nsw i32 %26, 2
  store i32 %27, ptr %10, align 8, !tbaa !23
  ret void
}